target datalayout = "e-m:e-p270:32:32-p271:32:32-p272:64:64-i64:64-i128:128-f80:128-n8:16:32:64-S128"
target triple = "x86_64-pc-linux-gnu"

%struct.__mbstate_t = type { i32, %union.anon }
%union.anon = type { i32 }

; Function Attrs: mustprogress nounwind uwtable
define internal void @_ZL13CharToWideMapPKcPwmRb(ptr noundef %0, ptr noundef %1, i64 noundef %2, ptr noundef nonnull align 1 dereferenceable(1) %3) #1 {
  %5 = alloca ptr, align 8
  %6 = alloca ptr, align 8
  %7 = alloca i64, align 8
  %8 = alloca ptr, align 8
  %9 = alloca i8, align 1
  %10 = alloca i32, align 4
  %11 = alloca i32, align 4
  %12 = alloca %struct.__mbstate_t, align 4
  %13 = alloca i64, align 8
  %14 = alloca i32, align 4
  store ptr %0, ptr %5, align 8
  store ptr %1, ptr %6, align 8
  store i64 %2, ptr %7, align 8
  store ptr %3, ptr %8, align 8
  %15 = load ptr, ptr %8, align 8
  store i8 0, ptr %15, align 1
  store i8 0, ptr %9, align 1
  store i32 0, ptr %10, align 4
  store i32 0, ptr %11, align 4
  br label %16

16:                                               ; preds = %105, %4
  %17 = load i32, ptr %11, align 4
  %18 = zext i32 %17 to i64
  %19 = load i64, ptr %7, align 8
  %20 = icmp ult i64 %18, %19
  br i1 %20, label %21, label %106

21:                                               ; preds = %16
  %22 = load ptr, ptr %5, align 8
  %23 = load i32, ptr %10, align 4
  %24 = zext i32 %23 to i64
  %25 = getelementptr inbounds i8, ptr %22, i64 %24
  %26 = load i8, ptr %25, align 1
  %27 = sext i8 %26 to i32
  %28 = icmp eq i32 %27, 0
  br i1 %28, label %29, label %31

29:                                               ; preds = %21
  %30 = load ptr, ptr %8, align 8
  store i8 1, ptr %30, align 1
  br label %106

31:                                               ; preds = %21
  call void @llvm.memset.p0.i64(ptr align 4 %12, i8 0, i64 8, i1 false)
  %32 = load ptr, ptr %6, align 8
  %33 = load i32, ptr %11, align 4
  %34 = zext i32 %33 to i64
  %35 = getelementptr inbounds i32, ptr %32, i64 %34
  %36 = load ptr, ptr %5, align 8
  %37 = load i32, ptr %10, align 4
  %38 = zext i32 %37 to i64
  %39 = getelementptr inbounds i8, ptr %36, i64 %38
  %40 = call i64 @__ctype_get_mb_cur_max() #6
  %41 = call i64 @mbrtowc(ptr noundef %35, ptr noundef %39, i64 noundef %40, ptr noundef %12) #6
  store i64 %41, ptr %13, align 8
  %42 = load i64, ptr %13, align 8
  %43 = icmp eq i64 %42, -1
  br i1 %43, label %47, label %44

44:                                               ; preds = %31
  %45 = load i64, ptr %13, align 8
  %46 = icmp eq i64 %45, -2
  br i1 %46, label %47, label %86

47:                                               ; preds = %44, %31
  %48 = load ptr, ptr %5, align 8
  %49 = load i32, ptr %10, align 4
  %50 = zext i32 %49 to i64
  %51 = getelementptr inbounds i8, ptr %48, i64 %50
  %52 = load i8, ptr %51, align 1
  %53 = zext i8 %52 to i32
  %54 = icmp sge i32 %53, 128
  br i1 %54, label %55, label %84

55:                                               ; preds = %47
  %56 = load i8, ptr %9, align 1
  %57 = trunc i8 %56 to i1
  br i1 %57, label %70, label %58

58:                                               ; preds = %55
  %59 = load ptr, ptr %6, align 8
  %60 = load i32, ptr %11, align 4
  %61 = add i32 %60, 1
  store i32 %61, ptr %11, align 4
  %62 = zext i32 %60 to i64
  %63 = getelementptr inbounds i32, ptr %59, i64 %62
  store i32 65534, ptr %63, align 4
  store i8 1, ptr %9, align 1
  %64 = load i32, ptr %11, align 4
  %65 = zext i32 %64 to i64
  %66 = load i64, ptr %7, align 8
  %67 = icmp uge i64 %65, %66
  br i1 %67, label %68, label %69

68:                                               ; preds = %58
  br label %106

69:                                               ; preds = %58
  br label %70

70:                                               ; preds = %69, %55
  %71 = load ptr, ptr %5, align 8
  %72 = load i32, ptr %10, align 4
  %73 = add i32 %72, 1
  store i32 %73, ptr %10, align 4
  %74 = zext i32 %72 to i64
  %75 = getelementptr inbounds i8, ptr %71, i64 %74
  %76 = load i8, ptr %75, align 1
  %77 = zext i8 %76 to i32
  %78 = add i32 %77, 57344
  %79 = load ptr, ptr %6, align 8
  %80 = load i32, ptr %11, align 4
  %81 = add i32 %80, 1
  store i32 %81, ptr %11, align 4
  %82 = zext i32 %80 to i64
  %83 = getelementptr inbounds i32, ptr %79, i64 %82
  store i32 %78, ptr %83, align 4
  br label %85

84:                                               ; preds = %47
  br label %106

85:                                               ; preds = %70
  br label %105

86:                                               ; preds = %44
  call void @llvm.memset.p0.i64(ptr align 4 %12, i8 0, i64 8, i1 false)
  %87 = load ptr, ptr %5, align 8
  %88 = load i32, ptr %10, align 4
  %89 = zext i32 %88 to i64
  %90 = getelementptr inbounds i8, ptr %87, i64 %89
  %91 = call i64 @__ctype_get_mb_cur_max() #6
  %92 = call i64 @mbrlen(ptr noundef %90, i64 noundef %91, ptr noundef %12) #6
  %93 = trunc i64 %92 to i32
  store i32 %93, ptr %14, align 4
  %94 = load i32, ptr %14, align 4
  %95 = icmp sgt i32 %94, 1
  br i1 %95, label %96, label %98

96:                                               ; preds = %86
  %97 = load i32, ptr %14, align 4
  br label %99

98:                                               ; preds = %86
  br label %99

99:                                               ; preds = %98, %96
  %100 = phi i32 [ %97, %96 ], [ 1, %98 ]
  %101 = load i32, ptr %10, align 4
  %102 = add i32 %101, %100
  store i32 %102, ptr %10, align 4
  %103 = load i32, ptr %11, align 4
  %104 = add i32 %103, 1
  store i32 %104, ptr %11, align 4
  br label %105

105:                                              ; preds = %99, %85
  br label %16, !llvm.loop !6

106:                                              ; preds = %84, %68, %29, %16
  %107 = load ptr, ptr %6, align 8
  %108 = load i32, ptr %11, align 4
  %109 = zext i32 %108 to i64
  %110 = load i64, ptr %7, align 8
  %111 = sub i64 %110, 1
  %112 = icmp ult i64 %109, %111
  br i1 %112, label %113, label %116

113:                                              ; preds = %106
  %114 = load i32, ptr %11, align 4
  %115 = zext i32 %114 to i64
  br label %119

116:                                              ; preds = %106
  %117 = load i64, ptr %7, align 8
  %118 = sub i64 %117, 1
  br label %119

119:                                              ; preds = %116, %113
  %120 = phi i64 [ %115, %113 ], [ %118, %116 ]
  %121 = getelementptr inbounds i32, ptr %107, i64 %120
  store i32 0, ptr %121, align 4
  ret void
}

; Function Attrs: mustprogress uwtable
define noundef zeroext i1 @_Z10CharToWidePKcPwm(ptr noundef %0, ptr noundef %1, i64 noundef %2) #0 {
  %4 = alloca ptr, align 8
  %5 = alloca ptr, align 8
  %6 = alloca i64, align 8
  %7 = alloca i8, align 1
  %8 = alloca %struct.__mbstate_t, align 4
  %9 = alloca ptr, align 8
  %10 = alloca i64, align 8
  store ptr %0, ptr %4, align 8
  store ptr %1, ptr %5, align 8
  store i64 %2, ptr %6, align 8
  store i8 1, ptr %7, align 1
  %11 = load ptr, ptr %5, align 8
  store i32 0, ptr %11, align 4
  call void @llvm.memset.p0.i64(ptr align 4 %8, i8 0, i64 8, i1 false)
  %12 = load ptr, ptr %4, align 8
  store ptr %12, ptr %9, align 8
  %13 = load ptr, ptr %5, align 8
  %14 = load i64, ptr %6, align 8
  %15 = call i64 @mbsrtowcs(ptr noundef %13, ptr noundef %9, i64 noundef %14, ptr noundef %8) #6
  store i64 %15, ptr %10, align 8
  %16 = load i64, ptr %10, align 8
  %17 = icmp eq i64 %16, -1
  br i1 %17, label %18, label %19

18:                                               ; preds = %3
  store i8 0, ptr %7, align 1
  br label %19

19:                                               ; preds = %18, %3
  %20 = load i64, ptr %10, align 8
  %21 = icmp eq i64 %20, 0
  br i1 %21, label %22, label %28

22:                                               ; preds = %19
  %23 = load ptr, ptr %4, align 8
  %24 = load i8, ptr %23, align 1
  %25 = sext i8 %24 to i32
  %26 = icmp ne i32 %25, 0
  br i1 %26, label %27, label %28

27:                                               ; preds = %22
  store i8 0, ptr %7, align 1
  br label %28

28:                                               ; preds = %27, %22, %19
  %29 = load i8, ptr %7, align 1
  %30 = trunc i8 %29 to i1
  %31 = zext i1 %30 to i32
  %32 = icmp eq i32 %31, 0
  br i1 %32, label %33, label %40

33:                                               ; preds = %28
  %34 = load i64, ptr %6, align 8
  %35 = icmp ugt i64 %34, 1
  br i1 %35, label %36, label %40

36:                                               ; preds = %33
  %37 = load ptr, ptr %4, align 8
  %38 = load ptr, ptr %5, align 8
  %39 = load i64, ptr %6, align 8
  call void @_ZL13CharToWideMapPKcPwmRb(ptr noundef %37, ptr noundef %38, i64 noundef %39, ptr noundef nonnull align 1 dereferenceable(1) %7)
  br label %40

40:                                               ; preds = %36, %33, %28
  %41 = load i64, ptr %6, align 8
  %42 = icmp ugt i64 %41, 0
  br i1 %42, label %43, label %48

43:                                               ; preds = %40
  %44 = load ptr, ptr %5, align 8
  %45 = load i64, ptr %6, align 8
  %46 = sub i64 %45, 1
  %47 = getelementptr inbounds i32, ptr %44, i64 %46
  store i32 0, ptr %47, align 4
  br label %48

48:                                               ; preds = %43, %40
  %49 = load i8, ptr %7, align 1
  %50 = trunc i8 %49 to i1
  ret i1 %50
}