; Function Attrs: mustprogress nounwind uwtable
define noundef zeroext i1 @_Z10CharToWidePKcPwm(ptr noundef %0, ptr noundef initializes((0, 4)) %1, i64 noundef %2) local_unnamed_addr #0 {
  %4 = alloca %struct.__mbstate_t, align 8
  %5 = alloca %struct.__mbstate_t, align 8
  %6 = alloca ptr, align 8
  store i32 0, ptr %1, align 4
  store i64 0, ptr %5, align 8
  store ptr %0, ptr %6, align 8
  %7 = call i64 @mbsrtowcs(ptr noundef nonnull %1, ptr noundef nonnull %6, i64 noundef %2, ptr noundef nonnull %5) #12
  switch i64 %7, label %.thread [
    i64 -1, label %10
    i64 0, label %8
  ]

8:                                                ; preds = %3
  %9 = load i8, ptr %0, align 1
  %.not = icmp eq i8 %9, 0
  br i1 %.not, label %.thread, label %10

10:                                               ; preds = %8, %3
  %11 = icmp ugt i64 %2, 1
  br i1 %11, label %12, label %.thread

12:                                               ; preds = %10
  call void @llvm.lifetime.start.p0(i64 8, ptr nonnull %4)
  br label %13

13:                                               ; preds = %42, %12
  %14 = phi i64 [ 0, %12 ], [ %43, %42 ]
  %.044.i = phi i1 [ false, %12 ], [ %.2.i, %42 ]
  %.03443.i = phi i32 [ 0, %12 ], [ %.135.i, %42 ]
  %.03642.i = phi i32 [ 0, %12 ], [ %.3.i, %42 ]
  %15 = zext i32 %.03443.i to i64
  %16 = getelementptr inbounds nuw i8, ptr %0, i64 %15
  %17 = load i8, ptr %16, align 1
  %18 = icmp eq i8 %17, 0
  br i1 %18, label %_ZL13CharToWideMapPKcPwmRb.exit, label %19

19:                                               ; preds = %13
  store i64 0, ptr %4, align 8
  %20 = getelementptr inbounds nuw i32, ptr %1, i64 %14
  %21 = call i64 @__ctype_get_mb_cur_max() #12
  %22 = call i64 @mbrtowc(ptr noundef nonnull %20, ptr noundef nonnull %16, i64 noundef %21, ptr noundef nonnull %4) #12
  %or.cond.i = icmp ugt i64 %22, -3
  br i1 %or.cond.i, label %23, label %36

23:                                               ; preds = %19
  %24 = load i8, ptr %16, align 1
  %25 = icmp slt i8 %24, 0
  br i1 %25, label %26, label %_ZL13CharToWideMapPKcPwmRb.exit

26:                                               ; preds = %23
  br i1 %.044.i, label %._crit_edge46.i, label %27

._crit_edge46.i:                                  ; preds = %26
  %.pre47.i = zext i32 %.03642.i to i64
  br label %30

27:                                               ; preds = %26
  %28 = add i32 %.03642.i, 1
  store i32 65534, ptr %20, align 4
  %29 = zext i32 %28 to i64
  %.not.i = icmp ugt i64 %2, %29
  br i1 %.not.i, label %._crit_edge.i, label %_ZL13CharToWideMapPKcPwmRb.exit

._crit_edge.i:                                    ; preds = %27
  %.pre.i = load i8, ptr %16, align 1
  br label %30

30:                                               ; preds = %._crit_edge.i, %._crit_edge46.i
  %.pre-phi.i = phi i64 [ %.pre47.i, %._crit_edge46.i ], [ %29, %._crit_edge.i ]
  %31 = phi i8 [ %24, %._crit_edge46.i ], [ %.pre.i, %._crit_edge.i ]
  %.238.i = phi i32 [ %.03642.i, %._crit_edge46.i ], [ %28, %._crit_edge.i ]
  %32 = add i32 %.03443.i, 1
  %33 = zext i8 %31 to i32
  %34 = or disjoint i32 %33, 57344
  %35 = getelementptr inbounds nuw i32, ptr %1, i64 %.pre-phi.i
  store i32 %34, ptr %35, align 4
  br label %42

36:                                               ; preds = %19
  store i64 0, ptr %4, align 8
  %37 = call i64 @__ctype_get_mb_cur_max() #12
  %38 = call i64 @mbrlen(ptr noundef nonnull %16, i64 noundef %37, ptr noundef nonnull %4) #12
  %39 = trunc i64 %38 to i32
  %40 = call i32 @llvm.smax.i32(i32 %39, i32 1)
  %41 = add i32 %40, %.03443.i
  br label %42

42:                                               ; preds = %36, %30
  %.3.in.i = phi i32 [ %.238.i, %30 ], [ %.03642.i, %36 ]
  %.135.i = phi i32 [ %32, %30 ], [ %41, %36 ]
  %.2.i = phi i1 [ true, %30 ], [ %.044.i, %36 ]
  %.3.i = add i32 %.3.in.i, 1
  %43 = zext i32 %.3.i to i64
  %44 = icmp ugt i64 %2, %43
  br i1 %44, label %13, label %_ZL13CharToWideMapPKcPwmRb.exit, !llvm.loop !6

_ZL13CharToWideMapPKcPwmRb.exit:                  ; preds = %13, %23, %27, %42
  %.137.i = phi i32 [ %.03642.i, %13 ], [ %.03642.i, %23 ], [ %28, %27 ], [ %.3.i, %42 ]
  %45 = zext i32 %.137.i to i64
  %46 = add i64 %2, -1
  %47 = call i64 @llvm.umin.i64(i64 %46, i64 %45)
  %48 = getelementptr inbounds nuw i32, ptr %1, i64 %47
  store i32 0, ptr %48, align 4
  call void @llvm.lifetime.end.p0(i64 8, ptr nonnull %4)
  br label %.thread

.thread:                                          ; preds = %8, %3, %_ZL13CharToWideMapPKcPwmRb.exit, %10
  %.1 = phi i1 [ %18, %_ZL13CharToWideMapPKcPwmRb.exit ], [ false, %10 ], [ true, %3 ], [ true, %8 ]
  %.not14 = icmp eq i64 %2, 0
  br i1 %.not14, label %52, label %49

49:                                               ; preds = %.thread
  %50 = getelementptr i32, ptr %1, i64 %2
  %51 = getelementptr i8, ptr %50, i64 -4
  store i32 0, ptr %51, align 4
  br label %52

52:                                               ; preds = %49, %.thread
  ret i1 %.1
}